target datalayout = "e-m:e-p270:32:32-p271:32:32-p272:64:64-i64:64-i128:128-f80:128-n8:16:32:64-S128"
target triple = "x86_64-pc-linux-gnu"

@hf_ssh_mpint_length = internal global i32 0, align 4
@hf_ssh_pk_blob_name_length = internal global i32 0, align 4
@hf_ssh_pk_blob_name = internal global i32 0, align 4
@hf_ssh_blob_p = internal global i32 0, align 4
@hf_ssh_blob_e = internal global i32 0, align 4

; Function Attrs: nounwind uwtable
define internal i32 @ssh_tree_add_mpint(ptr noundef %0, i32 noundef %1, ptr noundef %2, i32 noundef %3) #0 {
  %5 = alloca ptr, align 8
  %6 = alloca i32, align 4
  %7 = alloca ptr, align 8
  %8 = alloca i32, align 4
  %9 = alloca i32, align 4
  store ptr %0, ptr %5, align 8
  store i32 %1, ptr %6, align 4
  store ptr %2, ptr %7, align 8
  store i32 %3, ptr %8, align 4
  %10 = load ptr, ptr %5, align 8
  %11 = load i32, ptr %6, align 4
  %12 = call i32 @tvb_get_ntohl(ptr noundef %10, i32 noundef %11)
  store i32 %12, ptr %9, align 4
  %13 = load ptr, ptr %7, align 8
  %14 = load i32, ptr @hf_ssh_mpint_length, align 4
  %15 = load ptr, ptr %5, align 8
  %16 = load i32, ptr %6, align 4
  %17 = load i32, ptr %9, align 4
  %18 = call ptr @proto_tree_add_uint(ptr noundef %13, i32 noundef %14, ptr noundef %15, i32 noundef %16, i32 noundef 4, i32 noundef %17)
  %19 = load i32, ptr %6, align 4
  %20 = add i32 %19, 4
  store i32 %20, ptr %6, align 4
  %21 = load ptr, ptr %7, align 8
  %22 = load i32, ptr %8, align 4
  %23 = load ptr, ptr %5, align 8
  %24 = load i32, ptr %6, align 4
  %25 = load i32, ptr %9, align 4
  %26 = call ptr @proto_tree_add_item(ptr noundef %21, i32 noundef %22, ptr noundef %23, i32 noundef %24, i32 noundef %25, i32 noundef 0)
  %27 = load i32, ptr %9, align 4
  %28 = add i32 4, %27
  ret i32 %28
}

; Function Attrs: nounwind uwtable
define internal i32 @ssh_dissect_public_key_blob(ptr noundef %0, ptr noundef %1, i32 noundef %2, ptr noundef %3) #0 {
  %5 = alloca ptr, align 8
  %6 = alloca ptr, align 8
  %7 = alloca i32, align 4
  %8 = alloca ptr, align 8
  %9 = alloca i32, align 4
  store ptr %0, ptr %5, align 8
  store ptr %1, ptr %6, align 8
  store i32 %2, ptr %7, align 4
  store ptr %3, ptr %8, align 8
  %10 = load ptr, ptr %5, align 8
  %11 = load i32, ptr %7, align 4
  %12 = call i32 @tvb_get_ntohl(ptr noundef %10, i32 noundef %11)
  store i32 %12, ptr %9, align 4
  %13 = load ptr, ptr %8, align 8
  %14 = load i32, ptr @hf_ssh_pk_blob_name_length, align 4
  %15 = load ptr, ptr %5, align 8
  %16 = load i32, ptr %7, align 4
  %17 = call ptr @proto_tree_add_item(ptr noundef %13, i32 noundef %14, ptr noundef %15, i32 noundef %16, i32 noundef 4, i32 noundef 0)
  %18 = load i32, ptr %7, align 4
  %19 = add i32 %18, 4
  store i32 %19, ptr %7, align 4
  %20 = load ptr, ptr %8, align 8
  %21 = load i32, ptr @hf_ssh_pk_blob_name, align 4
  %22 = load ptr, ptr %5, align 8
  %23 = load i32, ptr %7, align 4
  %24 = load i32, ptr %9, align 4
  %25 = call ptr @proto_tree_add_item(ptr noundef %20, i32 noundef %21, ptr noundef %22, i32 noundef %23, i32 noundef %24, i32 noundef 0)
  %26 = load i32, ptr %9, align 4
  %27 = load i32, ptr %7, align 4
  %28 = add i32 %27, %26
  store i32 %28, ptr %7, align 4
  %29 = load ptr, ptr %5, align 8
  %30 = load i32, ptr %7, align 4
  %31 = load ptr, ptr %8, align 8
  %32 = load i32, ptr @hf_ssh_blob_e, align 4
  %33 = call i32 @ssh_tree_add_mpint(ptr noundef %29, i32 noundef %30, ptr noundef %31, i32 noundef %32)
  %34 = load i32, ptr %7, align 4
  %35 = add i32 %34, %33
  store i32 %35, ptr %7, align 4
  %36 = load ptr, ptr %5, align 8
  %37 = load i32, ptr %7, align 4
  %38 = load ptr, ptr %8, align 8
  %39 = load i32, ptr @hf_ssh_blob_p, align 4
  %40 = call i32 @ssh_tree_add_mpint(ptr noundef %36, i32 noundef %37, ptr noundef %38, i32 noundef %39)
  %41 = load i32, ptr %7, align 4
  %42 = add i32 %41, %40
  store i32 %42, ptr %7, align 4
  %43 = load i32, ptr %7, align 4
  ret i32 %43
}