; Function Attrs: nounwind uwtable
define internal fastcc noundef i32 @ssh_dissect_public_key_blob(ptr noundef %0, i32 noundef %1, ptr noundef %2) unnamed_addr #0 {
  %4 = tail call i32 @tvb_get_ntohl(ptr noundef %0, i32 noundef %1) #21
  %5 = load i32, ptr @hf_ssh_pk_blob_name_length, align 4
  %6 = tail call ptr @proto_tree_add_item(ptr noundef %2, i32 noundef %5, ptr noundef %0, i32 noundef %1, i32 noundef 4, i32 noundef 0) #21
  %7 = add i32 %1, 4
  %8 = load i32, ptr @hf_ssh_pk_blob_name, align 4
  %9 = tail call ptr @proto_tree_add_item(ptr noundef %2, i32 noundef %8, ptr noundef %0, i32 noundef %7, i32 noundef %4, i32 noundef 0) #21
  %10 = add i32 %4, %7
  %11 = load i32, ptr @hf_ssh_blob_e, align 4
  %12 = tail call i32 @tvb_get_ntohl(ptr noundef %0, i32 noundef %10) #21
  %13 = load i32, ptr @hf_ssh_mpint_length, align 4
  %14 = tail call ptr @proto_tree_add_uint(ptr noundef %2, i32 noundef %13, ptr noundef %0, i32 noundef %10, i32 noundef 4, i32 noundef %12) #21
  %15 = add i32 %10, 4
  %16 = tail call ptr @proto_tree_add_item(ptr noundef %2, i32 noundef %11, ptr noundef %0, i32 noundef %15, i32 noundef %12, i32 noundef 0) #21
  %17 = add i32 %15, %12
  %18 = load i32, ptr @hf_ssh_blob_p, align 4
  %19 = tail call i32 @tvb_get_ntohl(ptr noundef %0, i32 noundef %17) #21
  %20 = load i32, ptr @hf_ssh_mpint_length, align 4
  %21 = tail call ptr @proto_tree_add_uint(ptr noundef %2, i32 noundef %20, ptr noundef %0, i32 noundef %17, i32 noundef 4, i32 noundef %19) #21
  %22 = add i32 %17, 4
  %23 = tail call ptr @proto_tree_add_item(ptr noundef %2, i32 noundef %18, ptr noundef %0, i32 noundef %22, i32 noundef %19, i32 noundef 0) #21
  %24 = add i32 %22, %19
  ret i32 %24
}